target datalayout = "e-m:e-p270:32:32-p271:32:32-p272:64:64-i64:64-i128:128-f80:128-n8:16:32:64-S128"
target triple = "x86_64-pc-linux-gnu"

%class.LIR_Opr = type { i64 }

@ShenandoahLoadRefBarrier = external global i8, align 1

; Function Attrs: mustprogress nounwind uwtable
define hidden i64 @_ZN22ShenandoahBarrierSetC122load_reference_barrierEP12LIRGenerator7LIR_OprS2_m(ptr noundef nonnull align 8 dereferenceable(48) %0, ptr noundef %1, i64 %2, i64 %3, i64 noundef %4) #1 align 2 {
  %6 = alloca %class.LIR_Opr, align 8
  %7 = alloca %class.LIR_Opr, align 8
  %8 = alloca %class.LIR_Opr, align 8
  %9 = alloca ptr, align 8
  %10 = alloca ptr, align 8
  %11 = alloca i64, align 8
  %12 = alloca %class.LIR_Opr, align 8
  %13 = alloca %class.LIR_Opr, align 8
  %14 = getelementptr inbounds %class.LIR_Opr, ptr %7, i32 0, i32 0
  store i64 %2, ptr %14, align 8
  %15 = getelementptr inbounds %class.LIR_Opr, ptr %8, i32 0, i32 0
  store i64 %3, ptr %15, align 8
  store ptr %0, ptr %9, align 8
  store ptr %1, ptr %10, align 8
  store i64 %4, ptr %11, align 8
  %16 = load ptr, ptr %9, align 8
  %17 = load i8, ptr @ShenandoahLoadRefBarrier, align 1
  %18 = trunc i8 %17 to i1
  br i1 %18, label %19, label %28

19:                                               ; preds = %5
  %20 = load ptr, ptr %10, align 8
  call void @llvm.memcpy.p0.p0.i64(ptr align 8 %12, ptr align 8 %7, i64 8, i1 false)
  call void @llvm.memcpy.p0.p0.i64(ptr align 8 %13, ptr align 8 %8, i64 8, i1 false)
  %21 = load i64, ptr %11, align 8
  %22 = getelementptr inbounds %class.LIR_Opr, ptr %12, i32 0, i32 0
  %23 = load i64, ptr %22, align 8
  %24 = getelementptr inbounds %class.LIR_Opr, ptr %13, i32 0, i32 0
  %25 = load i64, ptr %24, align 8
  %26 = call i64 @_ZN22ShenandoahBarrierSetC127load_reference_barrier_implEP12LIRGenerator7LIR_OprS2_m(ptr noundef nonnull align 8 dereferenceable(48) %16, ptr noundef %20, i64 %23, i64 %25, i64 noundef %21)
  %27 = getelementptr inbounds %class.LIR_Opr, ptr %6, i32 0, i32 0
  store i64 %26, ptr %27, align 8
  br label %29

28:                                               ; preds = %5
  call void @llvm.memcpy.p0.p0.i64(ptr align 8 %6, ptr align 8 %7, i64 8, i1 false)
  br label %29

29:                                               ; preds = %28, %19
  %30 = getelementptr inbounds %class.LIR_Opr, ptr %6, i32 0, i32 0
  %31 = load i64, ptr %30, align 8
  ret i64 %31
}