; Function Attrs: mustprogress nounwind uwtable
define hidden i64 @_ZN22ShenandoahBarrierSetC122load_reference_barrierEP12LIRGenerator7LIR_OprS2_m(ptr nocapture noundef nonnull readnone align 8 dereferenceable(48) %0, ptr noundef %1, i64 %2, i64 %3, i64 noundef %4) local_unnamed_addr #0 align 2 {
  %6 = load i8, ptr @ShenandoahLoadRefBarrier, align 1
  %7 = trunc i8 %6 to i1
  br i1 %7, label %8, label %10

8:                                                ; preds = %5
  %9 = tail call i64 @_ZN22ShenandoahBarrierSetC127load_reference_barrier_implEP12LIRGenerator7LIR_OprS2_m(ptr nonnull align 8 poison, ptr noundef %1, i64 %2, i64 %3, i64 noundef %4)
  br label %10

10:                                               ; preds = %5, %8
  %.sroa.05.0 = phi i64 [ %9, %8 ], [ %2, %5 ]
  ret i64 %.sroa.05.0
}